target datalayout = "e-m:e-p270:32:32-p271:32:32-p272:64:64-i64:64-i128:128-f80:128-n8:16:32:64-S128"
target triple = "x86_64-pc-linux-gnu"

%struct.SDL_BlitInfo = type { ptr, ptr, i32, i32, i32, i32, ptr, ptr, i32, i32, i32, i32, ptr, ptr, ptr, ptr, ptr, ptr, i32, i32, i8, i8, i8, i8 }

; Function Attrs: nounwind uwtable
define internal void @Blit565to565SurfaceAlpha(ptr noundef %0) #0 {
  %2 = alloca ptr, align 8
  %3 = alloca i32, align 4
  %4 = alloca i32, align 4
  %5 = alloca i32, align 4
  %6 = alloca ptr, align 8
  %7 = alloca i32, align 4
  %8 = alloca ptr, align 8
  %9 = alloca i32, align 4
  %10 = alloca i32, align 4
  %11 = alloca i32, align 4
  %12 = alloca i32, align 4
  %13 = alloca i32, align 4
  %14 = alloca i32, align 4
  %15 = alloca i32, align 4
  %16 = alloca i32, align 4
  %17 = alloca i32, align 4
  %18 = alloca i32, align 4
  store ptr %0, ptr %2, align 8
  call void @llvm.lifetime.start.p0(i64 4, ptr %3) #3
  %19 = load ptr, ptr %2, align 8
  %20 = getelementptr inbounds nuw %struct.SDL_BlitInfo, ptr %19, i32 0, i32 23
  %21 = load i8, ptr %20, align 1
  %22 = zext i8 %21 to i32
  store i32 %22, ptr %3, align 4
  %23 = load i32, ptr %3, align 4
  %24 = icmp eq i32 %23, 128
  br i1 %24, label %25, label %27

25:                                               ; preds = %1
  %26 = load ptr, ptr %2, align 8
  call void @Blit16to16SurfaceAlpha128(ptr noundef %26, i16 noundef zeroext -2082)
  br label %216

27:                                               ; preds = %1
  call void @llvm.lifetime.start.p0(i64 4, ptr %4) #3
  %28 = load ptr, ptr %2, align 8
  %29 = getelementptr inbounds nuw %struct.SDL_BlitInfo, ptr %28, i32 0, i32 8
  %30 = load i32, ptr %29, align 8
  store i32 %30, ptr %4, align 4
  call void @llvm.lifetime.start.p0(i64 4, ptr %5) #3
  %31 = load ptr, ptr %2, align 8
  %32 = getelementptr inbounds nuw %struct.SDL_BlitInfo, ptr %31, i32 0, i32 9
  %33 = load i32, ptr %32, align 4
  store i32 %33, ptr %5, align 4
  call void @llvm.lifetime.start.p0(i64 8, ptr %6) #3
  %34 = load ptr, ptr %2, align 8
  %35 = getelementptr inbounds nuw %struct.SDL_BlitInfo, ptr %34, i32 0, i32 1
  %36 = load ptr, ptr %35, align 8
  store ptr %36, ptr %6, align 8
  call void @llvm.lifetime.start.p0(i64 4, ptr %7) #3
  %37 = load ptr, ptr %2, align 8
  %38 = getelementptr inbounds nuw %struct.SDL_BlitInfo, ptr %37, i32 0, i32 5
  %39 = load i32, ptr %38, align 4
  %40 = ashr i32 %39, 1
  store i32 %40, ptr %7, align 4
  call void @llvm.lifetime.start.p0(i64 8, ptr %8) #3
  %41 = load ptr, ptr %2, align 8
  %42 = getelementptr inbounds nuw %struct.SDL_BlitInfo, ptr %41, i32 0, i32 7
  %43 = load ptr, ptr %42, align 8
  store ptr %43, ptr %8, align 8
  call void @llvm.lifetime.start.p0(i64 4, ptr %9) #3
  %44 = load ptr, ptr %2, align 8
  %45 = getelementptr inbounds nuw %struct.SDL_BlitInfo, ptr %44, i32 0, i32 11
  %46 = load i32, ptr %45, align 4
  %47 = ashr i32 %46, 1
  store i32 %47, ptr %9, align 4
  %48 = load i32, ptr %3, align 4
  %49 = lshr i32 %48, 3
  store i32 %49, ptr %3, align 4
  br label %50

50:                                               ; preds = %206, %27
  %51 = load i32, ptr %5, align 4
  %52 = add nsw i32 %51, -1
  store i32 %52, ptr %5, align 4
  %53 = icmp ne i32 %51, 0
  br i1 %53, label %54, label %215

54:                                               ; preds = %50
  call void @llvm.lifetime.start.p0(i64 4, ptr %10) #3
  %55 = load i32, ptr %4, align 4
  %56 = add nsw i32 %55, 3
  %57 = sdiv i32 %56, 4
  store i32 %57, ptr %10, align 4
  %58 = load i32, ptr %4, align 4
  %59 = and i32 %58, 3
  switch i32 %59, label %206 [
    i32 0, label %60
    i32 3, label %96
    i32 2, label %131
    i32 1, label %166
  ]

60:                                               ; preds = %54
  br label %61

61:                                               ; preds = %201, %60
  call void @llvm.lifetime.start.p0(i64 4, ptr %11) #3
  %62 = load ptr, ptr %6, align 8
  %63 = getelementptr inbounds nuw i16, ptr %62, i32 1
  store ptr %63, ptr %6, align 8
  %64 = load i16, ptr %62, align 2
  %65 = zext i16 %64 to i32
  store i32 %65, ptr %11, align 4
  call void @llvm.lifetime.start.p0(i64 4, ptr %12) #3
  %66 = load ptr, ptr %8, align 8
  %67 = load i16, ptr %66, align 2
  %68 = zext i16 %67 to i32
  store i32 %68, ptr %12, align 4
  %69 = load i32, ptr %11, align 4
  %70 = load i32, ptr %11, align 4
  %71 = shl i32 %70, 16
  %72 = or i32 %69, %71
  %73 = and i32 %72, 132184095
  store i32 %73, ptr %11, align 4
  %74 = load i32, ptr %12, align 4
  %75 = load i32, ptr %12, align 4
  %76 = shl i32 %75, 16
  %77 = or i32 %74, %76
  %78 = and i32 %77, 132184095
  store i32 %78, ptr %12, align 4
  %79 = load i32, ptr %11, align 4
  %80 = load i32, ptr %12, align 4
  %81 = sub i32 %79, %80
  %82 = load i32, ptr %3, align 4
  %83 = mul i32 %81, %82
  %84 = lshr i32 %83, 5
  %85 = load i32, ptr %12, align 4
  %86 = add i32 %85, %84
  store i32 %86, ptr %12, align 4
  %87 = load i32, ptr %12, align 4
  %88 = and i32 %87, 132184095
  store i32 %88, ptr %12, align 4
  %89 = load i32, ptr %12, align 4
  %90 = load i32, ptr %12, align 4
  %91 = lshr i32 %90, 16
  %92 = or i32 %89, %91
  %93 = trunc i32 %92 to i16
  %94 = load ptr, ptr %8, align 8
  %95 = getelementptr inbounds nuw i16, ptr %94, i32 1
  store ptr %95, ptr %8, align 8
  store i16 %93, ptr %94, align 2
  call void @llvm.lifetime.end.p0(i64 4, ptr %12) #3
  call void @llvm.lifetime.end.p0(i64 4, ptr %11) #3
  br label %96

96:                                               ; preds = %54, %61
  call void @llvm.lifetime.start.p0(i64 4, ptr %13) #3
  %97 = load ptr, ptr %6, align 8
  %98 = getelementptr inbounds nuw i16, ptr %97, i32 1
  store ptr %98, ptr %6, align 8
  %99 = load i16, ptr %97, align 2
  %100 = zext i16 %99 to i32
  store i32 %100, ptr %13, align 4
  call void @llvm.lifetime.start.p0(i64 4, ptr %14) #3
  %101 = load ptr, ptr %8, align 8
  %102 = load i16, ptr %101, align 2
  %103 = zext i16 %102 to i32
  store i32 %103, ptr %14, align 4
  %104 = load i32, ptr %13, align 4
  %105 = load i32, ptr %13, align 4
  %106 = shl i32 %105, 16
  %107 = or i32 %104, %106
  %108 = and i32 %107, 132184095
  store i32 %108, ptr %13, align 4
  %109 = load i32, ptr %14, align 4
  %110 = load i32, ptr %14, align 4
  %111 = shl i32 %110, 16
  %112 = or i32 %109, %111
  %113 = and i32 %112, 132184095
  store i32 %113, ptr %14, align 4
  %114 = load i32, ptr %13, align 4
  %115 = load i32, ptr %14, align 4
  %116 = sub i32 %114, %115
  %117 = load i32, ptr %3, align 4
  %118 = mul i32 %116, %117
  %119 = lshr i32 %118, 5
  %120 = load i32, ptr %14, align 4
  %121 = add i32 %120, %119
  store i32 %121, ptr %14, align 4
  %122 = load i32, ptr %14, align 4
  %123 = and i32 %122, 132184095
  store i32 %123, ptr %14, align 4
  %124 = load i32, ptr %14, align 4
  %125 = load i32, ptr %14, align 4
  %126 = lshr i32 %125, 16
  %127 = or i32 %124, %126
  %128 = trunc i32 %127 to i16
  %129 = load ptr, ptr %8, align 8
  %130 = getelementptr inbounds nuw i16, ptr %129, i32 1
  store ptr %130, ptr %8, align 8
  store i16 %128, ptr %129, align 2
  call void @llvm.lifetime.end.p0(i64 4, ptr %14) #3
  call void @llvm.lifetime.end.p0(i64 4, ptr %13) #3
  br label %131

131:                                              ; preds = %54, %96
  call void @llvm.lifetime.start.p0(i64 4, ptr %15) #3
  %132 = load ptr, ptr %6, align 8
  %133 = getelementptr inbounds nuw i16, ptr %132, i32 1
  store ptr %133, ptr %6, align 8
  %134 = load i16, ptr %132, align 2
  %135 = zext i16 %134 to i32
  store i32 %135, ptr %15, align 4
  call void @llvm.lifetime.start.p0(i64 4, ptr %16) #3
  %136 = load ptr, ptr %8, align 8
  %137 = load i16, ptr %136, align 2
  %138 = zext i16 %137 to i32
  store i32 %138, ptr %16, align 4
  %139 = load i32, ptr %15, align 4
  %140 = load i32, ptr %15, align 4
  %141 = shl i32 %140, 16
  %142 = or i32 %139, %141
  %143 = and i32 %142, 132184095
  store i32 %143, ptr %15, align 4
  %144 = load i32, ptr %16, align 4
  %145 = load i32, ptr %16, align 4
  %146 = shl i32 %145, 16
  %147 = or i32 %144, %146
  %148 = and i32 %147, 132184095
  store i32 %148, ptr %16, align 4
  %149 = load i32, ptr %15, align 4
  %150 = load i32, ptr %16, align 4
  %151 = sub i32 %149, %150
  %152 = load i32, ptr %3, align 4
  %153 = mul i32 %151, %152
  %154 = lshr i32 %153, 5
  %155 = load i32, ptr %16, align 4
  %156 = add i32 %155, %154
  store i32 %156, ptr %16, align 4
  %157 = load i32, ptr %16, align 4
  %158 = and i32 %157, 132184095
  store i32 %158, ptr %16, align 4
  %159 = load i32, ptr %16, align 4
  %160 = load i32, ptr %16, align 4
  %161 = lshr i32 %160, 16
  %162 = or i32 %159, %161
  %163 = trunc i32 %162 to i16
  %164 = load ptr, ptr %8, align 8
  %165 = getelementptr inbounds nuw i16, ptr %164, i32 1
  store ptr %165, ptr %8, align 8
  store i16 %163, ptr %164, align 2
  call void @llvm.lifetime.end.p0(i64 4, ptr %16) #3
  call void @llvm.lifetime.end.p0(i64 4, ptr %15) #3
  br label %166

166:                                              ; preds = %54, %131
  call void @llvm.lifetime.start.p0(i64 4, ptr %17) #3
  %167 = load ptr, ptr %6, align 8
  %168 = getelementptr inbounds nuw i16, ptr %167, i32 1
  store ptr %168, ptr %6, align 8
  %169 = load i16, ptr %167, align 2
  %170 = zext i16 %169 to i32
  store i32 %170, ptr %17, align 4
  call void @llvm.lifetime.start.p0(i64 4, ptr %18) #3
  %171 = load ptr, ptr %8, align 8
  %172 = load i16, ptr %171, align 2
  %173 = zext i16 %172 to i32
  store i32 %173, ptr %18, align 4
  %174 = load i32, ptr %17, align 4
  %175 = load i32, ptr %17, align 4
  %176 = shl i32 %175, 16
  %177 = or i32 %174, %176
  %178 = and i32 %177, 132184095
  store i32 %178, ptr %17, align 4
  %179 = load i32, ptr %18, align 4
  %180 = load i32, ptr %18, align 4
  %181 = shl i32 %180, 16
  %182 = or i32 %179, %181
  %183 = and i32 %182, 132184095
  store i32 %183, ptr %18, align 4
  %184 = load i32, ptr %17, align 4
  %185 = load i32, ptr %18, align 4
  %186 = sub i32 %184, %185
  %187 = load i32, ptr %3, align 4
  %188 = mul i32 %186, %187
  %189 = lshr i32 %188, 5
  %190 = load i32, ptr %18, align 4
  %191 = add i32 %190, %189
  store i32 %191, ptr %18, align 4
  %192 = load i32, ptr %18, align 4
  %193 = and i32 %192, 132184095
  store i32 %193, ptr %18, align 4
  %194 = load i32, ptr %18, align 4
  %195 = load i32, ptr %18, align 4
  %196 = lshr i32 %195, 16
  %197 = or i32 %194, %196
  %198 = trunc i32 %197 to i16
  %199 = load ptr, ptr %8, align 8
  %200 = getelementptr inbounds nuw i16, ptr %199, i32 1
  store ptr %200, ptr %8, align 8
  store i16 %198, ptr %199, align 2
  call void @llvm.lifetime.end.p0(i64 4, ptr %18) #3
  call void @llvm.lifetime.end.p0(i64 4, ptr %17) #3
  br label %201

201:                                              ; preds = %166
  %202 = load i32, ptr %10, align 4
  %203 = add nsw i32 %202, -1
  store i32 %203, ptr %10, align 4
  %204 = icmp sgt i32 %203, 0
  br i1 %204, label %61, label %205, !llvm.loop !22

205:                                              ; preds = %201
  br label %206

206:                                              ; preds = %205, %54
  call void @llvm.lifetime.end.p0(i64 4, ptr %10) #3
  %207 = load i32, ptr %7, align 4
  %208 = load ptr, ptr %6, align 8
  %209 = sext i32 %207 to i64
  %210 = getelementptr inbounds i16, ptr %208, i64 %209
  store ptr %210, ptr %6, align 8
  %211 = load i32, ptr %9, align 4
  %212 = load ptr, ptr %8, align 8
  %213 = sext i32 %211 to i64
  %214 = getelementptr inbounds i16, ptr %212, i64 %213
  store ptr %214, ptr %8, align 8
  br label %50, !llvm.loop !23

215:                                              ; preds = %50
  call void @llvm.lifetime.end.p0(i64 4, ptr %9) #3
  call void @llvm.lifetime.end.p0(i64 8, ptr %8) #3
  call void @llvm.lifetime.end.p0(i64 4, ptr %7) #3
  call void @llvm.lifetime.end.p0(i64 8, ptr %6) #3
  call void @llvm.lifetime.end.p0(i64 4, ptr %5) #3
  call void @llvm.lifetime.end.p0(i64 4, ptr %4) #3
  br label %216

216:                                              ; preds = %215, %25
  call void @llvm.lifetime.end.p0(i64 4, ptr %3) #3
  ret void
}